target datalayout = "e-m:e-p270:32:32-p271:32:32-p272:64:64-i64:64-i128:128-f80:128-n8:16:32:64-S128"
target triple = "x86_64-unknown-linux-gnu"

%"class.grpc_core::promise_filter_detail::BaseCallData" = type { %"class.grpc_core::Activity", %"class.grpc_core::Wakeable", ptr, ptr, ptr, ptr, %"class.grpc_core::Timestamp", %"class.grpc_core::CallFinalization", ptr, ptr, %"struct.std::atomic", ptr, ptr, ptr, ptr }
%"class.grpc_core::Activity" = type { %"class.grpc_core::Orphanable" }
%"class.grpc_core::Orphanable" = type { ptr }
%"class.grpc_core::Wakeable" = type { ptr }
%"class.grpc_core::Timestamp" = type { i64 }
%"class.grpc_core::CallFinalization" = type { ptr }
%"struct.std::atomic" = type { %"struct.std::__atomic_base" }
%"struct.std::__atomic_base" = type { ptr }
%"class.grpc_core::Waker" = type { %"struct.grpc_core::Waker::WakeableAndArg" }
%"struct.grpc_core::Waker::WakeableAndArg" = type { ptr, i16 }
%struct.grpc_call_stack = type { %struct.grpc_stream_refcount, i64 }
%struct.grpc_stream_refcount = type { %"class.grpc_core::RefCount", %struct.grpc_closure }
%"class.grpc_core::RefCount" = type { %"struct.std::atomic.7" }
%"struct.std::atomic.7" = type { %"struct.std::__atomic_base.8" }
%"struct.std::__atomic_base.8" = type { i64 }
%struct.grpc_closure = type { %union.anon, ptr, ptr, %union.anon.9 }
%union.anon = type { ptr }
%union.anon.9 = type { i64 }

; Function Attrs: mustprogress nounwind uwtable
define linkonce_odr void @_ZN9grpc_core8RefCount10RefNonZeroEv(ptr noundef nonnull align 8 dereferenceable(8) %this) #5 comdat align 2 {
entry:
  %this.addr.i = alloca ptr, align 8
  %__i.addr.i = alloca i64, align 8
  %__m.addr.i = alloca i32, align 4
  %.atomictmp.i = alloca i64, align 8
  %atomic-temp.i = alloca i64, align 8
  %this.addr = alloca ptr, align 8
  store ptr %this, ptr %this.addr, align 8
  %this1 = load ptr, ptr %this.addr, align 8
  %value_ = getelementptr inbounds %"class.grpc_core::RefCount", ptr %this1, i32 0, i32 0
  store ptr %value_, ptr %this.addr.i, align 8
  store i64 1, ptr %__i.addr.i, align 8
  store i32 0, ptr %__m.addr.i, align 4
  %this1.i = load ptr, ptr %this.addr.i, align 8
  %0 = load i32, ptr %__m.addr.i, align 4
  %1 = load i64, ptr %__i.addr.i, align 8
  store i64 %1, ptr %.atomictmp.i, align 8
  switch i32 %0, label %monotonic.i [
    i32 1, label %acquire.i
    i32 2, label %acquire.i
    i32 3, label %release.i
    i32 4, label %acqrel.i
    i32 5, label %seqcst.i
  ]

monotonic.i:                                      ; preds = %entry
  %2 = load i64, ptr %.atomictmp.i, align 8
  %3 = atomicrmw add ptr %this1.i, i64 %2 monotonic, align 8
  store i64 %3, ptr %atomic-temp.i, align 8
  br label %_ZNSt13__atomic_baseIlE9fetch_addElSt12memory_order.exit

acquire.i:                                        ; preds = %entry, %entry
  %4 = load i64, ptr %.atomictmp.i, align 8
  %5 = atomicrmw add ptr %this1.i, i64 %4 acquire, align 8
  store i64 %5, ptr %atomic-temp.i, align 8
  br label %_ZNSt13__atomic_baseIlE9fetch_addElSt12memory_order.exit

release.i:                                        ; preds = %entry
  %6 = load i64, ptr %.atomictmp.i, align 8
  %7 = atomicrmw add ptr %this1.i, i64 %6 release, align 8
  store i64 %7, ptr %atomic-temp.i, align 8
  br label %_ZNSt13__atomic_baseIlE9fetch_addElSt12memory_order.exit

acqrel.i:                                         ; preds = %entry
  %8 = load i64, ptr %.atomictmp.i, align 8
  %9 = atomicrmw add ptr %this1.i, i64 %8 acq_rel, align 8
  store i64 %9, ptr %atomic-temp.i, align 8
  br label %_ZNSt13__atomic_baseIlE9fetch_addElSt12memory_order.exit

seqcst.i:                                         ; preds = %entry
  %10 = load i64, ptr %.atomictmp.i, align 8
  %11 = atomicrmw add ptr %this1.i, i64 %10 seq_cst, align 8
  store i64 %11, ptr %atomic-temp.i, align 8
  br label %_ZNSt13__atomic_baseIlE9fetch_addElSt12memory_order.exit

_ZNSt13__atomic_baseIlE9fetch_addElSt12memory_order.exit: ; preds = %seqcst.i, %acqrel.i, %release.i, %acquire.i, %monotonic.i
  ret void
}

; Function Attrs: mustprogress nounwind uwtable
define linkonce_odr void @_ZN9grpc_core5WakerC2EPNS_8WakeableEt(ptr noundef nonnull align 8 dereferenceable(16) %this, ptr noundef %wakeable, i16 noundef zeroext %wakeup_mask) unnamed_addr #5 comdat align 2 {
entry:
  %this.addr = alloca ptr, align 8
  %wakeable.addr = alloca ptr, align 8
  %wakeup_mask.addr = alloca i16, align 2
  store ptr %this, ptr %this.addr, align 8
  store ptr %wakeable, ptr %wakeable.addr, align 8
  store i16 %wakeup_mask, ptr %wakeup_mask.addr, align 2
  %this1 = load ptr, ptr %this.addr, align 8
  %wakeable_and_arg_ = getelementptr inbounds %"class.grpc_core::Waker", ptr %this1, i32 0, i32 0
  %wakeable2 = getelementptr inbounds %"struct.grpc_core::Waker::WakeableAndArg", ptr %wakeable_and_arg_, i32 0, i32 0
  %0 = load ptr, ptr %wakeable.addr, align 8
  store ptr %0, ptr %wakeable2, align 8
  %wakeup_mask3 = getelementptr inbounds %"struct.grpc_core::Waker::WakeableAndArg", ptr %wakeable_and_arg_, i32 0, i32 1
  %1 = load i16, ptr %wakeup_mask.addr, align 2
  store i16 %1, ptr %wakeup_mask3, align 8
  ret void
}

; Function Attrs: mustprogress uwtable
define linkonce_odr void @_Z15grpc_stream_refP20grpc_stream_refcount(ptr noundef %refcount) #4 comdat {
entry:
  %refcount.addr = alloca ptr, align 8
  store ptr %refcount, ptr %refcount.addr, align 8
  %0 = load ptr, ptr %refcount.addr, align 8
  %refs = getelementptr inbounds %struct.grpc_stream_refcount, ptr %0, i32 0, i32 0
  call void @_ZN9grpc_core8RefCount10RefNonZeroEv(ptr noundef nonnull align 8 dereferenceable(8) %refs)
  ret void
}

; Function Attrs: mustprogress uwtable
define void @_ZN9grpc_core21promise_filter_detail12BaseCallData15MakeOwningWakerEv(ptr noalias sret(%"class.grpc_core::Waker") align 8 %agg.result, ptr noundef nonnull align 8 dereferenceable(120) %this) unnamed_addr #4 align 2 {
entry:
  %result.ptr = alloca ptr, align 8
  %this.addr = alloca ptr, align 8
  store ptr %agg.result, ptr %result.ptr, align 8
  store ptr %this, ptr %this.addr, align 8
  %this1 = load ptr, ptr %this.addr, align 8
  br label %do.body

do.body:                                          ; preds = %entry
  %call_stack_ = getelementptr inbounds %"class.grpc_core::promise_filter_detail::BaseCallData", ptr %this1, i32 0, i32 2
  %0 = load ptr, ptr %call_stack_, align 8
  %refcount = getelementptr inbounds %struct.grpc_call_stack, ptr %0, i32 0, i32 0
  call void @_Z15grpc_stream_refP20grpc_stream_refcount(ptr noundef %refcount)
  br label %do.end

do.end:                                           ; preds = %do.body
  %add.ptr = getelementptr inbounds i8, ptr %this1, i64 8
  call void @_ZN9grpc_core5WakerC2EPNS_8WakeableEt(ptr noundef nonnull align 8 dereferenceable(16) %agg.result, ptr noundef %add.ptr, i16 noundef zeroext 0)
  ret void
}