; Function Attrs: mustprogress nofree norecurse nounwind willreturn memory(readwrite, inaccessiblemem: none) uwtable
define void @_ZN9grpc_core21promise_filter_detail12BaseCallData15MakeOwningWakerEv(ptr noalias nocapture writeonly sret(%"class.grpc_core::Waker") align 8 %agg.result, ptr noundef nonnull align 8 dereferenceable(120) %this) unnamed_addr #13 align 2 {
entry:
  %call_stack_ = getelementptr inbounds i8, ptr %this, i64 16
  %0 = load ptr, ptr %call_stack_, align 8
  %1 = atomicrmw add ptr %0, i64 1 monotonic, align 8
  %add.ptr = getelementptr inbounds i8, ptr %this, i64 8
  store ptr %add.ptr, ptr %agg.result, align 8
  %wakeup_mask3.i = getelementptr inbounds i8, ptr %agg.result, i64 8
  store i16 0, ptr %wakeup_mask3.i, align 8
  ret void
}